; ModuleID = '57/2209.c'
source_filename = "57/2209.c"
target datalayout = "e-m:e-p270:32:32-p271:32:32-p272:64:64-i64:64-f80:128-n8:16:32:64-S128"
target triple = "x86_64-pc-linux-gnu"

@.str = private unnamed_addr constant [3 x i8] c"%d\00", align 1
@.str.1 = private unnamed_addr constant [3 x i8] c"%s\00", align 1
@.str.2 = private unnamed_addr constant [3 x i8] c"%c\00", align 1
@.str.3 = private unnamed_addr constant [2 x i8] c"\0A\00", align 1

; Function Attrs: noinline nounwind uwtable
define dso_local void @main() #0 {
  %1 = alloca [50 x [15 x i8]], align 16
  %2 = alloca i32, align 4
  %3 = alloca i32, align 4
  %4 = alloca i32, align 4
  %5 = call i32 (i8*, ...) @__isoc99_scanf(i8* getelementptr inbounds ([3 x i8], [3 x i8]* @.str, i64 0, i64 0), i32* %4)
  store i32 0, i32* %2, align 4
  br label %6

6:                                                ; preds = %16, %0
  %7 = load i32, i32* %2, align 4
  %8 = load i32, i32* %4, align 4
  %9 = icmp slt i32 %7, %8
  br i1 %9, label %10, label %19

10:                                               ; preds = %6
  %11 = load i32, i32* %2, align 4
  %12 = sext i32 %11 to i64
  %13 = getelementptr inbounds [50 x [15 x i8]], [50 x [15 x i8]]* %1, i64 0, i64 %12
  %14 = getelementptr inbounds [15 x i8], [15 x i8]* %13, i64 0, i64 0
  %15 = call i32 (i8*, ...) @__isoc99_scanf(i8* getelementptr inbounds ([3 x i8], [3 x i8]* @.str.1, i64 0, i64 0), i8* %14)
  br label %16

16:                                               ; preds = %10
  %17 = load i32, i32* %2, align 4
  %18 = add nsw i32 %17, 1
  store i32 %18, i32* %2, align 4
  br label %6

19:                                               ; preds = %6
  store i32 0, i32* %2, align 4
  br label %20

20:                                               ; preds = %91, %19
  %21 = load i32, i32* %2, align 4
  %22 = load i32, i32* %4, align 4
  %23 = icmp slt i32 %21, %22
  br i1 %23, label %24, label %94

24:                                               ; preds = %20
  %25 = load i32, i32* %2, align 4
  %26 = sext i32 %25 to i64
  %27 = getelementptr inbounds [50 x [15 x i8]], [50 x [15 x i8]]* %1, i64 0, i64 %26
  %28 = load i32, i32* %2, align 4
  %29 = sext i32 %28 to i64
  %30 = getelementptr inbounds [50 x [15 x i8]], [50 x [15 x i8]]* %1, i64 0, i64 %29
  %31 = getelementptr inbounds [15 x i8], [15 x i8]* %30, i64 0, i64 0
  %32 = call i64 @strlen(i8* %31) #3
  %33 = sub i64 %32, 3
  %34 = getelementptr inbounds [15 x i8], [15 x i8]* %27, i64 0, i64 %33
  %35 = load i8, i8* %34, align 1
  %36 = sext i8 %35 to i32
  %37 = icmp eq i32 %36, 105
  br i1 %37, label %38, label %64

38:                                               ; preds = %24
  store i32 0, i32* %3, align 4
  br label %39

39:                                               ; preds = %59, %38
  %40 = load i32, i32* %3, align 4
  %41 = load i32, i32* %2, align 4
  %42 = sext i32 %41 to i64
  %43 = getelementptr inbounds [50 x [15 x i8]], [50 x [15 x i8]]* %1, i64 0, i64 %42
  %44 = getelementptr inbounds [15 x i8], [15 x i8]* %43, i64 0, i64 0
  %45 = call i64 @strlen(i8* %44) #3
  %46 = trunc i64 %45 to i32
  %47 = sub nsw i32 %46, 3
  %48 = icmp slt i32 %40, %47
  br i1 %48, label %49, label %62

49:                                               ; preds = %39
  %50 = load i32, i32* %2, align 4
  %51 = sext i32 %50 to i64
  %52 = getelementptr inbounds [50 x [15 x i8]], [50 x [15 x i8]]* %1, i64 0, i64 %51
  %53 = load i32, i32* %3, align 4
  %54 = sext i32 %53 to i64
  %55 = getelementptr inbounds [15 x i8], [15 x i8]* %52, i64 0, i64 %54
  %56 = load i8, i8* %55, align 1
  %57 = sext i8 %56 to i32
  %58 = call i32 (i8*, ...) @printf(i8* getelementptr inbounds ([3 x i8], [3 x i8]* @.str.2, i64 0, i64 0), i32 %57)
  br label %59

59:                                               ; preds = %49
  %60 = load i32, i32* %3, align 4
  %61 = add nsw i32 %60, 1
  store i32 %61, i32* %3, align 4
  br label %39

62:                                               ; preds = %39
  %63 = call i32 (i8*, ...) @printf(i8* getelementptr inbounds ([2 x i8], [2 x i8]* @.str.3, i64 0, i64 0))
  br label %90

64:                                               ; preds = %24
  store i32 0, i32* %3, align 4
  br label %65

65:                                               ; preds = %85, %64
  %66 = load i32, i32* %3, align 4
  %67 = load i32, i32* %2, align 4
  %68 = sext i32 %67 to i64
  %69 = getelementptr inbounds [50 x [15 x i8]], [50 x [15 x i8]]* %1, i64 0, i64 %68
  %70 = getelementptr inbounds [15 x i8], [15 x i8]* %69, i64 0, i64 0
  %71 = call i64 @strlen(i8* %70) #3
  %72 = trunc i64 %71 to i32
  %73 = sub nsw i32 %72, 2
  %74 = icmp slt i32 %66, %73
  br i1 %74, label %75, label %88

75:                                               ; preds = %65
  %76 = load i32, i32* %2, align 4
  %77 = sext i32 %76 to i64
  %78 = getelementptr inbounds [50 x [15 x i8]], [50 x [15 x i8]]* %1, i64 0, i64 %77
  %79 = load i32, i32* %3, align 4
  %80 = sext i32 %79 to i64
  %81 = getelementptr inbounds [15 x i8], [15 x i8]* %78, i64 0, i64 %80
  %82 = load i8, i8* %81, align 1
  %83 = sext i8 %82 to i32
  %84 = call i32 (i8*, ...) @printf(i8* getelementptr inbounds ([3 x i8], [3 x i8]* @.str.2, i64 0, i64 0), i32 %83)
  br label %85

85:                                               ; preds = %75
  %86 = load i32, i32* %3, align 4
  %87 = add nsw i32 %86, 1
  store i32 %87, i32* %3, align 4
  br label %65

88:                                               ; preds = %65
  %89 = call i32 (i8*, ...) @printf(i8* getelementptr inbounds ([2 x i8], [2 x i8]* @.str.3, i64 0, i64 0))
  br label %90

90:                                               ; preds = %88, %62
  br label %91

91:                                               ; preds = %90
  %92 = load i32, i32* %2, align 4
  %93 = add nsw i32 %92, 1
  store i32 %93, i32* %2, align 4
  br label %20

94:                                               ; preds = %20
  ret void
}

declare dso_local i32 @__isoc99_scanf(i8*, ...) #1

; Function Attrs: nounwind readonly
declare dso_local i64 @strlen(i8*) #2

declare dso_local i32 @printf(i8*, ...) #1


!llvm.module.flags = !{!0}
!llvm.ident = !{!1}

!0 = !{i32 1, !"wchar_size", i32 4}
!1 = !{!"clang version 10.0.0-4ubuntu1 "}
