; ModuleID = 'source-C-CXX/56/2209.c'
source_filename = "source-C-CXX/56/2209.c"
target datalayout = "e-m:e-p270:32:32-p271:32:32-p272:64:64-i64:64-f80:128-n8:16:32:64-S128"
target triple = "x86_64-pc-linux-gnu"

@.str = private unnamed_addr constant [3 x i8] c"%d\00", align 1
@.str.1 = private unnamed_addr constant [3 x i8] c"%s\00", align 1

; Function Attrs: nofree nounwind sspstrong uwtable
define dso_local void @main() local_unnamed_addr #0 {
  %1 = alloca [50 x [15 x i8]], align 16
  %2 = alloca i32, align 4
  %3 = getelementptr inbounds [50 x [15 x i8]], [50 x [15 x i8]]* %1, i64 0, i64 0, i64 0
  call void @llvm.lifetime.start.p0i8(i64 750, i8* nonnull %3) #5
  %4 = bitcast i32* %2 to i8*
  call void @llvm.lifetime.start.p0i8(i64 4, i8* nonnull %4) #5
  %5 = call i32 (i8*, ...) @__isoc99_scanf(i8* getelementptr inbounds ([3 x i8], [3 x i8]* @.str, i64 0, i64 0), i32* nonnull %2)
  %6 = load i32, i32* %2, align 4, !tbaa !5
  %7 = icmp sgt i32 %6, 0
  br i1 %7, label %10, label %62

8:                                                ; preds = %10
  %9 = icmp sgt i32 %15, 0
  br i1 %9, label %18, label %62

10:                                               ; preds = %0, %10
  %11 = phi i64 [ %14, %10 ], [ 0, %0 ]
  %12 = getelementptr inbounds [50 x [15 x i8]], [50 x [15 x i8]]* %1, i64 0, i64 %11, i64 0
  %13 = call i32 (i8*, ...) @__isoc99_scanf(i8* getelementptr inbounds ([3 x i8], [3 x i8]* @.str.1, i64 0, i64 0), i8* nonnull %12)
  %14 = add nuw nsw i64 %11, 1
  %15 = load i32, i32* %2, align 4, !tbaa !5
  %16 = sext i32 %15 to i64
  %17 = icmp slt i64 %14, %16
  br i1 %17, label %10, label %8, !llvm.loop !9

18:                                               ; preds = %8, %56
  %19 = phi i64 [ %58, %56 ], [ 0, %8 ]
  %20 = getelementptr inbounds [50 x [15 x i8]], [50 x [15 x i8]]* %1, i64 0, i64 %19, i64 0
  %21 = call i64 @strlen(i8* noundef nonnull %20) #6
  %22 = add i64 %21, -3
  %23 = getelementptr inbounds [50 x [15 x i8]], [50 x [15 x i8]]* %1, i64 0, i64 %19, i64 %22
  %24 = load i8, i8* %23, align 1, !tbaa !11
  %25 = icmp eq i8 %24, 105
  %26 = call i64 @strlen(i8* noundef nonnull %20) #6
  %27 = trunc i64 %26 to i32
  br i1 %25, label %30, label %28

28:                                               ; preds = %18
  %29 = icmp sgt i32 %27, 2
  br i1 %29, label %44, label %56

30:                                               ; preds = %18
  %31 = icmp sgt i32 %27, 3
  br i1 %31, label %32, label %56

32:                                               ; preds = %30, %32
  %33 = phi i64 [ %38, %32 ], [ 0, %30 ]
  %34 = getelementptr inbounds [50 x [15 x i8]], [50 x [15 x i8]]* %1, i64 0, i64 %19, i64 %33
  %35 = load i8, i8* %34, align 1, !tbaa !11
  %36 = sext i8 %35 to i32
  %37 = call i32 @putchar(i32 %36)
  %38 = add nuw nsw i64 %33, 1
  %39 = call i64 @strlen(i8* noundef nonnull %20) #6
  %40 = shl i64 %39, 32
  %41 = add i64 %40, -12884901888
  %42 = ashr exact i64 %41, 32
  %43 = icmp slt i64 %38, %42
  br i1 %43, label %32, label %56, !llvm.loop !12

44:                                               ; preds = %28, %44
  %45 = phi i64 [ %50, %44 ], [ 0, %28 ]
  %46 = getelementptr inbounds [50 x [15 x i8]], [50 x [15 x i8]]* %1, i64 0, i64 %19, i64 %45
  %47 = load i8, i8* %46, align 1, !tbaa !11
  %48 = sext i8 %47 to i32
  %49 = call i32 @putchar(i32 %48)
  %50 = add nuw nsw i64 %45, 1
  %51 = call i64 @strlen(i8* noundef nonnull %20) #6
  %52 = shl i64 %51, 32
  %53 = add i64 %52, -8589934592
  %54 = ashr exact i64 %53, 32
  %55 = icmp slt i64 %50, %54
  br i1 %55, label %44, label %56, !llvm.loop !13

56:                                               ; preds = %44, %32, %28, %30
  %57 = call i32 @putchar(i32 10)
  %58 = add nuw nsw i64 %19, 1
  %59 = load i32, i32* %2, align 4, !tbaa !5
  %60 = sext i32 %59 to i64
  %61 = icmp slt i64 %58, %60
  br i1 %61, label %18, label %62, !llvm.loop !14

62:                                               ; preds = %56, %0, %8
  call void @llvm.lifetime.end.p0i8(i64 4, i8* nonnull %4) #5
  call void @llvm.lifetime.end.p0i8(i64 750, i8* nonnull %3) #5
  ret void
}

; Function Attrs: argmemonly mustprogress nofree nosync nounwind willreturn
declare void @llvm.lifetime.start.p0i8(i64 immarg, i8* nocapture) #1

; Function Attrs: nofree nounwind
declare noundef i32 @__isoc99_scanf(i8* nocapture noundef readonly, ...) local_unnamed_addr #2

; Function Attrs: argmemonly mustprogress nofree nounwind readonly willreturn
declare i64 @strlen(i8* nocapture) local_unnamed_addr #3

; Function Attrs: argmemonly mustprogress nofree nosync nounwind willreturn
declare void @llvm.lifetime.end.p0i8(i64 immarg, i8* nocapture) #1

; Function Attrs: nofree nounwind
declare noundef i32 @putchar(i32 noundef) local_unnamed_addr #4


!llvm.module.flags = !{!0, !1, !2, !3}
!llvm.ident = !{!4}

!0 = !{i32 1, !"wchar_size", i32 4}
!1 = !{i32 7, !"PIC Level", i32 2}
!2 = !{i32 7, !"PIE Level", i32 2}
!3 = !{i32 7, !"uwtable", i32 1}
!4 = !{!"clang version 13.0.0"}
!5 = !{!6, !6, i64 0}
!6 = !{!"int", !7, i64 0}
!7 = !{!"omnipotent char", !8, i64 0}
!8 = !{!"Simple C/C++ TBAA"}
!9 = distinct !{!9, !10}
!10 = !{!"llvm.loop.mustprogress"}
!11 = !{!7, !7, i64 0}
!12 = distinct !{!12, !10}
!13 = distinct !{!13, !10}
!14 = distinct !{!14, !10}
